TN:
SF:/home/developer/workspace/tryings/sample/src/core/Analyzer.cpp
FN:4,_ZN8Analyzer16computeTextBlockERKNSt7__cxx1112basic_stringIcSt11char_traitsIcESaIcEEE
FN:10,_ZN8Analyzer11findSmileysERKNSt7__cxx1112basic_stringIcSt11char_traitsIcESaIcEEE
FN:24,_ZN8Analyzer9findWordsERKNSt7__cxx1112basic_stringIcSt11char_traitsIcESaIcEEE
FNDA:19,_ZN8Analyzer16computeTextBlockERKNSt7__cxx1112basic_stringIcSt11char_traitsIcESaIcEEE
FNDA:19,_ZN8Analyzer11findSmileysERKNSt7__cxx1112basic_stringIcSt11char_traitsIcESaIcEEE
FNDA:19,_ZN8Analyzer9findWordsERKNSt7__cxx1112basic_stringIcSt11char_traitsIcESaIcEEE
FNF:3
FNH:3
DA:4,19
DA:6,38
DA:10,19
DA:12,38
DA:13,19
DA:15,47
DA:16,28
DA:17,28
DA:20,38
DA:24,19
DA:26,38
DA:27,19
DA:29,117
DA:30,98
DA:31,98
DA:34,38
LF:16
LH:16
end_of_record
TN:
SF:/home/developer/workspace/tryings/sample/src/core/CmdLineParser.cpp
FN:10,_ZN13CmdLineParserC2Ev
FN:16,_ZN13CmdLineParser12parseOptionsEiPKPc
FN:70,_ZNK13CmdLineParser11getSettingsEv
FN:76,_ZN13CmdLineParser9printHelpEv
FNDA:1,_ZNK13CmdLineParser11getSettingsEv
FNDA:1,_ZN13CmdLineParser12parseOptionsEiPKPc
FNDA:0,_ZN13CmdLineParser9printHelpEv
FNDA:1,_ZN13CmdLineParserC2Ev
FNF:4
FNH:3
DA:10,1
DA:11,1
DA:13,1
DA:16,1
DA:18,1
DA:19,1
DA:20,1
DA:21,1
DA:28,4
DA:29,4
DA:30,1
DA:33,3
DA:34,1
DA:35,1
DA:36,1
DA:37,1
DA:39,1
DA:40,1
DA:41,1
DA:42,1
DA:44,1
DA:45,1
DA:46,1
DA:47,1
DA:49,0
DA:50,0
DA:51,0
DA:52,0
DA:54,0
DA:55,0
DA:56,0
DA:57,0
DA:60,3
DA:62,1
DA:63,0
DA:66,1
DA:70,1
DA:72,1
DA:76,0
DA:78,0
DA:79,0
DA:80,0
DA:81,0
DA:82,0
DA:83,0
LF:45
LH:29
end_of_record
TN:
SF:/home/developer/workspace/tryings/sample/src/core/CmdLineParser.hpp
FN:25,_ZN13CmdLineParserD2Ev
FNDA:1,_ZN13CmdLineParserD2Ev
FNF:1
FNH:1
DA:25,1
LF:1
LH:1
end_of_record
TN:
SF:/home/developer/workspace/tryings/sample/src/format/ConsoleFormat.cpp
FN:6,_ZNK13ConsoleFormat7getTypeEv
FN:12,_ZN13ConsoleFormat7publishERKSt10shared_ptrI13OutputMessageE
FN:24,_ZN13ConsoleFormat14publishSmileysERKSt6vectorINSt7__cxx1113match_resultsIN9__gnu_cxx17__normal_iteratorIPKcNS1_12basic_stringIcSt11char_traitsIcESaIcEEEEESaINS1_9sub_matchISC_EEEEESaISG_EE
FN:45,_ZN13ConsoleFormat12publishWordsERKSt6vectorINSt7__cxx1113match_resultsIN9__gnu_cxx17__normal_iteratorIPKcNS1_12basic_stringIcSt11char_traitsIcESaIcEEEEESaINS1_9sub_matchISC_EEEEESaISG_EE
FNDA:5,_ZN13ConsoleFormat14publishSmileysERKSt6vectorINSt7__cxx1113match_resultsIN9__gnu_cxx17__normal_iteratorIPKcNS1_12basic_stringIcSt11char_traitsIcESaIcEEEEESaINS1_9sub_matchISC_EEEEESaISG_EE
FNDA:5,_ZN13ConsoleFormat12publishWordsERKSt6vectorINSt7__cxx1113match_resultsIN9__gnu_cxx17__normal_iteratorIPKcNS1_12basic_stringIcSt11char_traitsIcESaIcEEEEESaINS1_9sub_matchISC_EEEEESaISG_EE
FNDA:5,_ZN13ConsoleFormat7publishERKSt10shared_ptrI13OutputMessageE
FNDA:1,_ZNK13ConsoleFormat7getTypeEv
FNF:4
FNH:4
DA:6,1
DA:8,1
DA:12,5
DA:14,5
DA:15,5
DA:17,5
DA:18,5
DA:20,5
DA:21,5
DA:24,5
DA:26,5
DA:27,2
DA:29,2
DA:30,2
DA:31,9
DA:32,7
DA:33,7
DA:36,7
DA:40,3
DA:42,5
DA:45,5
DA:47,5
DA:48,3
DA:50,3
DA:51,3
DA:52,31
DA:53,28
DA:54,27
DA:57,28
DA:61,2
DA:63,5
LF:31
LH:31
end_of_record
TN:
SF:/home/developer/workspace/tryings/sample/src/format/ConsoleFormat.hpp
FN:18,_ZN13ConsoleFormatC2Ev
FNDA:1,_ZN13ConsoleFormatC2Ev
FNF:1
FNH:1
DA:18,1
LF:1
LH:1
end_of_record
TN:
SF:/home/developer/workspace/tryings/sample/src/format/TextFormat.cpp
FN:3,_ZN10TextFormatC2ERKNSt7__cxx1112basic_stringIcSt11char_traitsIcESaIcEEE
FN:9,_ZNK10TextFormat7getTypeEv
FN:15,_ZN10TextFormat7publishERKSt10shared_ptrI13OutputMessageE
FN:32,_ZN10TextFormat14publishSmileysERKSt6vectorINSt7__cxx1113match_resultsIN9__gnu_cxx17__normal_iteratorIPKcNS1_12basic_stringIcSt11char_traitsIcESaIcEEEEESaINS1_9sub_matchISC_EEEEESaISG_EE
FN:53,_ZN10TextFormat12publishWordsERKSt6vectorINSt7__cxx1113match_resultsIN9__gnu_cxx17__normal_iteratorIPKcNS1_12basic_stringIcSt11char_traitsIcESaIcEEEEESaINS1_9sub_matchISC_EEEEESaISG_EE
FNDA:1,_ZNK10TextFormat7getTypeEv
FNDA:5,_ZN10TextFormat14publishSmileysERKSt6vectorINSt7__cxx1113match_resultsIN9__gnu_cxx17__normal_iteratorIPKcNS1_12basic_stringIcSt11char_traitsIcESaIcEEEEESaINS1_9sub_matchISC_EEEEESaISG_EE
FNDA:5,_ZN10TextFormat12publishWordsERKSt6vectorINSt7__cxx1113match_resultsIN9__gnu_cxx17__normal_iteratorIPKcNS1_12basic_stringIcSt11char_traitsIcESaIcEEEEESaINS1_9sub_matchISC_EEEEESaISG_EE
FNDA:6,_ZN10TextFormatC2ERKNSt7__cxx1112basic_stringIcSt11char_traitsIcESaIcEEE
FNDA:5,_ZN10TextFormat7publishERKSt10shared_ptrI13OutputMessageE
FNF:5
FNH:5
DA:3,6
DA:4,6
DA:6,6
DA:9,1
DA:11,1
DA:15,5
DA:17,5
DA:18,5
DA:19,5
DA:21,5
DA:22,5
DA:24,5
DA:27,0
DA:29,5
DA:32,5
DA:34,5
DA:35,2
DA:37,2
DA:38,2
DA:39,9
DA:40,7
DA:41,7
DA:44,7
DA:48,3
DA:50,5
DA:53,5
DA:55,5
DA:56,3
DA:58,3
DA:59,3
DA:60,31
DA:61,28
DA:62,27
DA:65,28
DA:69,2
DA:71,5
LF:36
LH:35
end_of_record
TN:
SF:/home/developer/workspace/tryings/sample/src/format/TextFormat.hpp
FN:21,_ZN10TextFormatD2Ev
FNDA:6,_ZN10TextFormatD2Ev
FNF:1
FNH:1
DA:21,6
LF:1
LH:1
end_of_record
TN:
SF:/home/developer/workspace/tryings/sample/src/format/XmlFormat.cpp
FN:3,_ZN9XmlFormatC2ERKNSt7__cxx1112basic_stringIcSt11char_traitsIcESaIcEEE
FN:9,_ZNK9XmlFormat7getTypeEv
FN:15,_ZN9XmlFormat7publishERKSt10shared_ptrI13OutputMessageE
FN:37,_ZN9XmlFormat14publishSmileysERKSt6vectorINSt7__cxx1113match_resultsIN9__gnu_cxx17__normal_iteratorIPKcNS1_12basic_stringIcSt11char_traitsIcESaIcEEEEESaINS1_9sub_matchISC_EEEEESaISG_EE
FN:61,_ZN9XmlFormat12publishWordsERKSt6vectorINSt7__cxx1113match_resultsIN9__gnu_cxx17__normal_iteratorIPKcNS1_12basic_stringIcSt11char_traitsIcESaIcEEEEESaINS1_9sub_matchISC_EEEEESaISG_EE
FNDA:1,_ZNK9XmlFormat7getTypeEv
FNDA:6,_ZN9XmlFormatC2ERKNSt7__cxx1112basic_stringIcSt11char_traitsIcESaIcEEE
FNDA:5,_ZN9XmlFormat12publishWordsERKSt6vectorINSt7__cxx1113match_resultsIN9__gnu_cxx17__normal_iteratorIPKcNS1_12basic_stringIcSt11char_traitsIcESaIcEEEEESaINS1_9sub_matchISC_EEEEESaISG_EE
FNDA:5,_ZN9XmlFormat7publishERKSt10shared_ptrI13OutputMessageE
FNDA:5,_ZN9XmlFormat14publishSmileysERKSt6vectorINSt7__cxx1113match_resultsIN9__gnu_cxx17__normal_iteratorIPKcNS1_12basic_stringIcSt11char_traitsIcESaIcEEEEESaINS1_9sub_matchISC_EEEEESaISG_EE
FNF:5
FNH:5
DA:3,6
DA:4,6
DA:6,6
DA:9,1
DA:11,1
DA:15,5
DA:17,5
DA:19,5
DA:20,5
DA:21,5
DA:22,5
DA:23,5
DA:24,5
DA:26,5
DA:27,5
DA:29,5
DA:32,0
DA:34,5
DA:37,5
DA:39,5
DA:40,2
DA:41,2
DA:43,2
DA:44,2
DA:45,9
DA:46,7
DA:47,7
DA:50,7
DA:54,3
DA:57,5
DA:58,5
DA:61,5
DA:63,5
DA:64,3
DA:65,3
DA:67,3
DA:68,3
DA:69,31
DA:70,28
DA:71,27
DA:74,28
DA:78,2
DA:81,5
DA:82,5
LF:44
LH:43
end_of_record
TN:
SF:/home/developer/workspace/tryings/sample/src/format/XmlFormat.hpp
FN:21,_ZN9XmlFormatD2Ev
FNDA:6,_ZN9XmlFormatD2Ev
FNF:1
FNH:1
DA:21,6
LF:1
LH:1
end_of_record
TN:
SF:/home/developer/workspace/tryings/sample/src/output/Output.cpp
FN:3,_ZN6OutputC2ERKSt10shared_ptrI20OutputFormatSettingsE
FN:9,_ZN6Output7publishERKSt10shared_ptrI13OutputMessageE
FNDA:2,_ZN6Output7publishERKSt10shared_ptrI13OutputMessageE
FNDA:2,_ZN6OutputC2ERKSt10shared_ptrI20OutputFormatSettingsE
FNF:2
FNH:2
DA:3,2
DA:4,2
DA:6,2
DA:9,2
DA:11,3
DA:12,1
DA:14,2
LF:7
LH:7
end_of_record
TN:
SF:/home/developer/workspace/tryings/sample/src/output/Output.hpp
FN:19,_ZN6OutputD2Ev
FNDA:2,_ZN6OutputD2Ev
FNF:1
FNH:1
DA:19,2
LF:1
LH:1
end_of_record
TN:
SF:/home/developer/workspace/tryings/sample/src/output/OutputFormatSettings.cpp
FN:3,_ZN20OutputFormatSettingsC2Ev
FN:9,_ZN20OutputFormatSettings14registerFormatERKSt10shared_ptrI7IFormatE
FN:16,_ZNK20OutputFormatSettings16getOutputFormatsEv
FNDA:5,_ZN20OutputFormatSettingsC2Ev
FNDA:5,_ZN20OutputFormatSettings14registerFormatERKSt10shared_ptrI7IFormatE
FNDA:5,_ZNK20OutputFormatSettings16getOutputFormatsEv
FNF:3
FNH:3
DA:3,5
DA:4,5
DA:6,5
DA:9,5
DA:11,5
DA:12,5
DA:16,5
DA:18,5
LF:8
LH:8
end_of_record
TN:
SF:/home/developer/workspace/tryings/sample/src/output/OutputFormatSettings.hpp
FN:17,_ZN20OutputFormatSettingsD2Ev
FNDA:5,_ZN20OutputFormatSettingsD2Ev
FNF:1
FNH:1
DA:17,5
LF:1
LH:1
end_of_record
TN:
SF:/home/developer/workspace/tryings/sample/src/output/OutputMessage.cpp
FN:3,_ZN13OutputMessageC2ERKNSt7__cxx1112basic_stringIcSt11char_traitsIcESaIcEEERKSt6vectorINS0_13match_resultsIN9__gnu_cxx17__normal_iteratorIPKcS5_EESaINS0_9sub_matchISE_EEEEESaISI_EESM_
FN:13,_ZNK13OutputMessage12getInputTextB5cxx11Ev
FN:19,_ZNK13OutputMessage17getMatchedSmileysB5cxx11Ev
FN:26,_ZNK13OutputMessage15getMatchedWordsB5cxx11Ev
FNDA:23,_ZN13OutputMessageC2ERKNSt7__cxx1112basic_stringIcSt11char_traitsIcESaIcEEERKSt6vectorINS0_13match_resultsIN9__gnu_cxx17__normal_iteratorIPKcS5_EESaINS0_9sub_matchISE_EEEEESaISI_EESM_
FNDA:21,_ZNK13OutputMessage15getMatchedWordsB5cxx11Ev
FNDA:21,_ZNK13OutputMessage17getMatchedSmileysB5cxx11Ev
FNDA:17,_ZNK13OutputMessage12getInputTextB5cxx11Ev
FNF:4
FNH:4
DA:3,23
DA:5,23
DA:8,23
DA:10,23
DA:13,17
DA:15,17
DA:19,21
DA:21,21
DA:26,21
DA:28,21
LF:10
LH:10
end_of_record
TN:
SF:/home/developer/workspace/tryings/sample/src/output/OutputMessage.hpp
FN:18,_ZN13OutputMessageD2Ev
FNDA:23,_ZN13OutputMessageD2Ev
FNF:1
FNH:1
DA:18,23
LF:1
LH:1
end_of_record
